; Function Attrs: nofree norecurse nosync nounwind memory(readwrite, inaccessiblemem: none) uwtable
define internal noundef i32 @Jac2(double %0, ptr readnone captures(none) %1, ptr readnone captures(none) %2, ptr noundef readonly captures(none) %3, ptr readnone captures(none) %4, ptr readnone captures(none) %5, ptr readnone captures(none) %6, ptr readnone captures(none) %7) #6 {
  %9 = load ptr, ptr %3, align 8, !tbaa !30
  %10 = getelementptr inbounds nuw i8, ptr %9, i64 64
  %11 = load ptr, ptr %10, align 8, !tbaa !37
  %12 = getelementptr inbounds nuw i8, ptr %9, i64 40
  %13 = load i64, ptr %12, align 8, !tbaa !39
  br label %.preheader

.preheader:                                       ; preds = %8, %.split.us
  %indvars.iv29 = phi i64 [ 0, %8 ], [ %indvars.iv.next30, %.split.us ]
  %.not20 = icmp eq i64 %indvars.iv29, 4
  %invariant.gep38.idx = mul nuw nsw i64 %indvars.iv29, 40
  %invariant.gep38 = getelementptr inbounds nuw i8, ptr %11, i64 %invariant.gep38.idx
  %14 = load ptr, ptr %invariant.gep38, align 8, !tbaa !36
  %15 = getelementptr inbounds double, ptr %14, i64 %13
  store double -2.000000e+00, ptr %15, align 8, !tbaa !26
  br i1 %.not20, label %.preheader.split.us, label %.preheader.split

.preheader.split.us:                              ; preds = %.preheader, %.preheader.split.us
  %16 = phi ptr [ %19, %.preheader.split.us ], [ %14, %.preheader ]
  %indvars.iv2541 = phi i64 [ %indvars.iv.next26, %.preheader.split.us ], [ 0, %.preheader ]
  %17 = getelementptr inbounds double, ptr %16, i64 %13
  %18 = getelementptr inbounds nuw i8, ptr %17, i64 8
  store double 1.000000e+00, ptr %18, align 8, !tbaa !26
  %indvars.iv.next26 = add nuw nsw i64 %indvars.iv2541, 1
  %gep39 = getelementptr inbounds nuw ptr, ptr %invariant.gep38, i64 %indvars.iv.next26
  %19 = load ptr, ptr %gep39, align 8, !tbaa !36
  %20 = getelementptr inbounds double, ptr %19, i64 %13
  store double -2.000000e+00, ptr %20, align 8, !tbaa !26
  %.not.us = icmp eq i64 %indvars.iv.next26, 4
  br i1 %.not.us, label %.split.us, label %.preheader.split.us

.preheader.split:                                 ; preds = %.preheader, %.preheader.split
  %21 = phi ptr [ %25, %.preheader.split ], [ %15, %.preheader ]
  %indvars.iv40 = phi i64 [ %indvars.iv.next, %.preheader.split ], [ 0, %.preheader ]
  %22 = getelementptr inbounds nuw i8, ptr %21, i64 8
  store double 1.000000e+00, ptr %22, align 8, !tbaa !26
  %23 = getelementptr inbounds nuw i8, ptr %21, i64 40
  store double 1.000000e+00, ptr %23, align 8, !tbaa !26
  %indvars.iv.next = add nuw nsw i64 %indvars.iv40, 1
  %gep = getelementptr inbounds nuw ptr, ptr %invariant.gep38, i64 %indvars.iv.next
  %24 = load ptr, ptr %gep, align 8, !tbaa !36
  %25 = getelementptr inbounds double, ptr %24, i64 %13
  store double -2.000000e+00, ptr %25, align 8, !tbaa !26
  %.not = icmp eq i64 %indvars.iv.next, 4
  br i1 %.not, label %.split.us.loopexit23, label %.preheader.split

.split.us.loopexit23:                             ; preds = %.preheader.split
  %26 = getelementptr inbounds nuw i8, ptr %25, i64 40
  store double 1.000000e+00, ptr %26, align 8, !tbaa !26
  br label %.split.us

.split.us:                                        ; preds = %.preheader.split.us, %.split.us.loopexit23
  %indvars.iv.next30 = add nuw nsw i64 %indvars.iv29, 1
  %exitcond32.not = icmp eq i64 %indvars.iv.next30, 5
  br i1 %exitcond32.not, label %27, label %.preheader

27:                                               ; preds = %.split.us
  ret i32 0
}